target datalayout = "e-m:e-p270:32:32-p271:32:32-p272:64:64-i64:64-i128:128-f80:128-n8:16:32:64-S128"
target triple = "x86_64-pc-linux-gnu"

%struct._Node = type { %union.anon.2 }
%union.anon.2 = type { %struct.BagNode }
%struct.BagNode = type { i32, i32, ptr, ptr, i32, %union.anon.4, i32, i32, i32, i32, i32 }
%union.anon.4 = type { %struct.anon.7 }
%struct.anon.7 = type { ptr, ptr }
%struct.anon.3 = type { i32, i32, ptr, ptr }
%struct.StrNode = type { i32, i32, ptr, ptr, ptr, i32, [24 x i8], i32 }

; Function Attrs: nounwind uwtable
define dso_local void @onig_node_free(ptr noundef %0) #0 {
  %2 = alloca ptr, align 8
  store ptr %0, ptr %2, align 8, !tbaa !111
  %3 = load ptr, ptr %2, align 8, !tbaa !111
  %4 = icmp eq ptr %3, null
  br i1 %4, label %5, label %6

5:                                                ; preds = %1
  br label %9

6:                                                ; preds = %1
  %7 = load ptr, ptr %2, align 8, !tbaa !111
  call void @node_free_body(ptr noundef %7)
  %8 = load ptr, ptr %2, align 8, !tbaa !111
  call void @free(ptr noundef %8) #8
  br label %9

9:                                                ; preds = %6, %5
  ret void
}

; Function Attrs: nounwind uwtable
define internal i32 @node_set_str(ptr noundef %0, ptr noundef %1, ptr noundef %2) #0 {
  %4 = alloca ptr, align 8
  %5 = alloca ptr, align 8
  %6 = alloca ptr, align 8
  %7 = alloca i32, align 4
  store ptr %0, ptr %4, align 8, !tbaa !111
  store ptr %1, ptr %5, align 8, !tbaa !4
  store ptr %2, ptr %6, align 8, !tbaa !4
  call void @llvm.lifetime.start.p0(i64 4, ptr %7) #8
  %8 = load ptr, ptr %4, align 8, !tbaa !111
  %9 = getelementptr inbounds nuw %struct._Node, ptr %8, i32 0, i32 0
  %10 = getelementptr inbounds nuw %struct.anon.3, ptr %9, i32 0, i32 0
  store i32 0, ptr %10, align 8, !tbaa !12
  %11 = load ptr, ptr %4, align 8, !tbaa !111
  %12 = getelementptr inbounds nuw %struct._Node, ptr %11, i32 0, i32 0
  %13 = getelementptr inbounds nuw %struct.StrNode, ptr %12, i32 0, i32 5
  store i32 0, ptr %13, align 8, !tbaa !12
  %14 = load ptr, ptr %4, align 8, !tbaa !111
  %15 = getelementptr inbounds nuw %struct._Node, ptr %14, i32 0, i32 0
  %16 = getelementptr inbounds nuw %struct.StrNode, ptr %15, i32 0, i32 6
  %17 = getelementptr inbounds [24 x i8], ptr %16, i64 0, i64 0
  %18 = load ptr, ptr %4, align 8, !tbaa !111
  %19 = getelementptr inbounds nuw %struct._Node, ptr %18, i32 0, i32 0
  %20 = getelementptr inbounds nuw %struct.StrNode, ptr %19, i32 0, i32 3
  store ptr %17, ptr %20, align 8, !tbaa !12
  %21 = load ptr, ptr %4, align 8, !tbaa !111
  %22 = getelementptr inbounds nuw %struct._Node, ptr %21, i32 0, i32 0
  %23 = getelementptr inbounds nuw %struct.StrNode, ptr %22, i32 0, i32 6
  %24 = getelementptr inbounds [24 x i8], ptr %23, i64 0, i64 0
  %25 = load ptr, ptr %4, align 8, !tbaa !111
  %26 = getelementptr inbounds nuw %struct._Node, ptr %25, i32 0, i32 0
  %27 = getelementptr inbounds nuw %struct.StrNode, ptr %26, i32 0, i32 4
  store ptr %24, ptr %27, align 8, !tbaa !12
  %28 = load ptr, ptr %4, align 8, !tbaa !111
  %29 = getelementptr inbounds nuw %struct._Node, ptr %28, i32 0, i32 0
  %30 = getelementptr inbounds nuw %struct.StrNode, ptr %29, i32 0, i32 7
  store i32 0, ptr %30, align 4, !tbaa !12
  %31 = load ptr, ptr %4, align 8, !tbaa !111
  %32 = load ptr, ptr %5, align 8, !tbaa !4
  %33 = load ptr, ptr %6, align 8, !tbaa !4
  %34 = call i32 @onig_node_str_cat(ptr noundef %31, ptr noundef %32, ptr noundef %33)
  store i32 %34, ptr %7, align 4, !tbaa !10
  %35 = load i32, ptr %7, align 4, !tbaa !10
  call void @llvm.lifetime.end.p0(i64 4, ptr %7) #8
  ret i32 %35
}

; Function Attrs: nounwind uwtable
define internal ptr @node_new() #0 {
  %1 = alloca ptr, align 8
  %2 = alloca ptr, align 8
  %3 = alloca i32, align 4
  call void @llvm.lifetime.start.p0(i64 8, ptr %2) #8
  %4 = call noalias ptr @malloc(i64 noundef 72) #9
  store ptr %4, ptr %2, align 8, !tbaa !111
  %5 = load ptr, ptr %2, align 8, !tbaa !111
  %6 = icmp eq ptr %5, null
  br i1 %6, label %7, label %8

7:                                                ; preds = %0
  store ptr null, ptr %1, align 8
  store i32 1, ptr %3, align 4
  br label %11

8:                                                ; preds = %0
  %9 = load ptr, ptr %2, align 8, !tbaa !111
  call void @llvm.memset.p0.i64(ptr align 8 %9, i8 0, i64 72, i1 false)
  %10 = load ptr, ptr %2, align 8, !tbaa !111
  store ptr %10, ptr %1, align 8
  store i32 1, ptr %3, align 4
  br label %11

11:                                               ; preds = %8, %7
  call void @llvm.lifetime.end.p0(i64 8, ptr %2) #8
  %12 = load ptr, ptr %1, align 8
  ret ptr %12
}

; Function Attrs: nounwind uwtable
define internal ptr @node_new_str(ptr noundef %0, ptr noundef %1) #0 {
  %3 = alloca ptr, align 8
  %4 = alloca ptr, align 8
  %5 = alloca ptr, align 8
  %6 = alloca i32, align 4
  %7 = alloca ptr, align 8
  %8 = alloca i32, align 4
  store ptr %0, ptr %4, align 8, !tbaa !4
  store ptr %1, ptr %5, align 8, !tbaa !4
  call void @llvm.lifetime.start.p0(i64 4, ptr %6) #8
  call void @llvm.lifetime.start.p0(i64 8, ptr %7) #8
  %9 = call ptr @node_new()
  store ptr %9, ptr %7, align 8, !tbaa !111
  %10 = load ptr, ptr %7, align 8, !tbaa !111
  %11 = icmp eq ptr %10, null
  br i1 %11, label %12, label %13

12:                                               ; preds = %2
  store ptr null, ptr %3, align 8
  store i32 1, ptr %8, align 4
  br label %24

13:                                               ; preds = %2
  %14 = load ptr, ptr %7, align 8, !tbaa !111
  %15 = load ptr, ptr %4, align 8, !tbaa !4
  %16 = load ptr, ptr %5, align 8, !tbaa !4
  %17 = call i32 @node_set_str(ptr noundef %14, ptr noundef %15, ptr noundef %16)
  store i32 %17, ptr %6, align 4, !tbaa !10
  %18 = load i32, ptr %6, align 4, !tbaa !10
  %19 = icmp ne i32 %18, 0
  br i1 %19, label %20, label %22

20:                                               ; preds = %13
  %21 = load ptr, ptr %7, align 8, !tbaa !111
  call void @onig_node_free(ptr noundef %21)
  store ptr null, ptr %3, align 8
  store i32 1, ptr %8, align 4
  br label %24

22:                                               ; preds = %13
  %23 = load ptr, ptr %7, align 8, !tbaa !111
  store ptr %23, ptr %3, align 8
  store i32 1, ptr %8, align 4
  br label %24

24:                                               ; preds = %22, %20, %12
  call void @llvm.lifetime.end.p0(i64 8, ptr %7) #8
  call void @llvm.lifetime.end.p0(i64 4, ptr %6) #8
  %25 = load ptr, ptr %3, align 8
  ret ptr %25
}

; Function Attrs: nounwind uwtable
define internal ptr @node_new_str_with_options(ptr noundef %0, ptr noundef %1, i32 noundef %2) #0 {
  %4 = alloca ptr, align 8
  %5 = alloca ptr, align 8
  %6 = alloca i32, align 4
  %7 = alloca ptr, align 8
  store ptr %0, ptr %4, align 8, !tbaa !4
  store ptr %1, ptr %5, align 8, !tbaa !4
  store i32 %2, ptr %6, align 4, !tbaa !10
  call void @llvm.lifetime.start.p0(i64 8, ptr %7) #8
  %8 = load ptr, ptr %4, align 8, !tbaa !4
  %9 = load ptr, ptr %5, align 8, !tbaa !4
  %10 = call ptr @node_new_str(ptr noundef %8, ptr noundef %9)
  store ptr %10, ptr %7, align 8, !tbaa !111
  %11 = load i32, ptr %6, align 4, !tbaa !10
  %12 = and i32 %11, 1
  %13 = icmp ne i32 %12, 0
  br i1 %13, label %14, label %20

14:                                               ; preds = %3
  %15 = load ptr, ptr %7, align 8, !tbaa !111
  %16 = getelementptr inbounds nuw %struct._Node, ptr %15, i32 0, i32 0
  %17 = getelementptr inbounds nuw %struct.anon.3, ptr %16, i32 0, i32 1
  %18 = load i32, ptr %17, align 4, !tbaa !12
  %19 = or i32 %18, 2097152
  store i32 %19, ptr %17, align 4, !tbaa !12
  br label %20

20:                                               ; preds = %14, %3
  %21 = load ptr, ptr %7, align 8, !tbaa !111
  call void @llvm.lifetime.end.p0(i64 8, ptr %7) #8
  ret ptr %21
}