; Function Attrs: nounwind uwtable
define internal fastcc noundef ptr @node_new_str_with_options(ptr noundef %0, ptr noundef %1, i32 noundef %2) unnamed_addr #2 {
  %calloc.i.i = tail call noalias noundef dereferenceable_or_null(72) ptr @calloc(i64 1, i64 72)
  %4 = icmp eq ptr %calloc.i.i, null
  br i1 %4, label %node_new_str.exit, label %5

5:                                                ; preds = %3
  %6 = getelementptr inbounds nuw i8, ptr %calloc.i.i, i64 36
  %7 = getelementptr inbounds nuw i8, ptr %calloc.i.i, i64 16
  store ptr %6, ptr %7, align 8, !tbaa !10
  %8 = getelementptr inbounds nuw i8, ptr %calloc.i.i, i64 24
  store ptr %6, ptr %8, align 8, !tbaa !10
  %9 = tail call range(i32 -5, 1) i32 @onig_node_str_cat(ptr noundef nonnull %calloc.i.i, ptr noundef %0, ptr noundef %1)
  %.not.i = icmp eq i32 %9, 0
  br i1 %.not.i, label %node_new_str.exit, label %onig_node_free.exit.i

onig_node_free.exit.i:                            ; preds = %5
  tail call fastcc void @node_free_body(ptr noundef nonnull %calloc.i.i)
  tail call void @free(ptr noundef nonnull %calloc.i.i) #24
  br label %node_new_str.exit

node_new_str.exit:                                ; preds = %3, %5, %onig_node_free.exit.i
  %.0.i = phi ptr [ null, %onig_node_free.exit.i ], [ null, %3 ], [ %calloc.i.i, %5 ]
  %10 = and i32 %2, 1
  %.not = icmp eq i32 %10, 0
  br i1 %.not, label %15, label %11

11:                                               ; preds = %node_new_str.exit
  %12 = getelementptr inbounds nuw i8, ptr %.0.i, i64 4
  %13 = load i32, ptr %12, align 4, !tbaa !10
  %14 = or i32 %13, 2097152
  store i32 %14, ptr %12, align 4, !tbaa !10
  br label %15

15:                                               ; preds = %11, %node_new_str.exit
  ret ptr %.0.i
}